; Function Attrs: mustprogress uwtable
define { ptr, ptr } @_ZNK3gmx19TopologyInformation1vEv(ptr nocapture noundef nonnull readonly align 8 dereferenceable(128) %0) local_unnamed_addr #7 align 2 personality ptr @__gxx_personality_v0 {
  %2 = alloca %"class.gmx::APIError", align 8
  %3 = alloca %"class.gmx::ExceptionInitializer", align 8
  %4 = alloca %"class.gmx::ExceptionInfo", align 8
  %5 = getelementptr inbounds i8, ptr %0, i64 64
  %6 = load ptr, ptr %5, align 8
  %7 = getelementptr inbounds i8, ptr %0, i64 72
  %8 = load ptr, ptr %7, align 8
  %9 = icmp eq ptr %6, %8
  br i1 %9, label %10, label %21

10:                                               ; preds = %1
  %11 = tail call ptr @__cxa_allocate_exception(i64 24) #15
  invoke void @_ZN3gmx20ExceptionInitializerC2EPKc(ptr noundef nonnull align 8 dereferenceable(56) %3, ptr noundef nonnull @.str.6)
          to label %12 unwind label %.thread

12:                                               ; preds = %10
  invoke void @_ZN3gmx16GromacsExceptionC2ERKNS_20ExceptionInitializerE(ptr noundef nonnull align 8 dereferenceable(24) %2, ptr noundef nonnull align 8 dereferenceable(56) %3)
          to label %13 unwind label %.thread15

13:                                               ; preds = %12
  store ptr getelementptr inbounds inrange(-16, 32) ({ [6 x ptr] }, ptr @_ZTVN3gmx8APIErrorE, i64 0, i32 0, i64 2), ptr %2, align 8
  store ptr getelementptr inbounds inrange(-16, 16) ({ [4 x ptr] }, ptr @_ZTVN3gmx13ExceptionInfoINS_22ExceptionInfoLocation_ENS_13ThrowLocationEEE, i64 0, i32 0, i64 2), ptr %4, align 8
  %14 = getelementptr inbounds i8, ptr %4, i64 8
  store ptr @__PRETTY_FUNCTION__._ZNK3gmx19TopologyInformation1vEv, ptr %14, align 8
  %.sroa.2.0..sroa_idx = getelementptr inbounds i8, ptr %4, i64 16
  store ptr @.str.1, ptr %.sroa.2.0..sroa_idx, align 8
  %.sroa.3.0..sroa_idx = getelementptr inbounds i8, ptr %4, i64 24
  store i32 162, ptr %.sroa.3.0..sroa_idx, align 8
  invoke void @_ZN3gmxlsINS_8APIErrorENS_22ExceptionInfoLocation_ENS_13ThrowLocationEEENSt9enable_ifIXsr3std10is_base_ofINS_16GromacsExceptionET_EE5valueES6_E4typeES6_RKNS_13ExceptionInfoIT0_T1_EE(ptr dead_on_unwind writable sret(%"class.gmx::APIError") align 8 %11, ptr noundef nonnull %2, ptr noundef nonnull align 8 dereferenceable(32) %4)
          to label %15 unwind label %18

15:                                               ; preds = %13
  invoke void @__cxa_throw(ptr %11, ptr nonnull @_ZTIN3gmx8APIErrorE, ptr nonnull @_ZN3gmx8APIErrorD2Ev) #19
          to label %27 unwind label %18

.thread:                                          ; preds = %10
  %16 = landingpad { ptr, i32 }
          cleanup
  br label %20

.thread15:                                        ; preds = %12
  %17 = landingpad { ptr, i32 }
          cleanup
  call void @_ZN3gmx20ExceptionInitializerD2Ev(ptr noundef nonnull align 8 dereferenceable(56) %3) #15
  br label %20

18:                                               ; preds = %13, %15
  %.0 = phi i1 [ false, %15 ], [ true, %13 ]
  %19 = landingpad { ptr, i32 }
          cleanup
  call void @_ZN3gmx8internal14IExceptionInfoD2Ev(ptr noundef nonnull align 8 dereferenceable(8) %4) #15
  call void @_ZN3gmx8APIErrorD2Ev(ptr noundef nonnull align 8 dereferenceable(24) %2) #15
  call void @_ZN3gmx20ExceptionInitializerD2Ev(ptr noundef nonnull align 8 dereferenceable(56) %3) #15
  br i1 %.0, label %20, label %26

20:                                               ; preds = %.thread15, %.thread, %18
  %.pn.pn14 = phi { ptr, i32 } [ %16, %.thread ], [ %19, %18 ], [ %17, %.thread15 ]
  call void @__cxa_free_exception(ptr %11) #15
  br label %26

21:                                               ; preds = %1
  %22 = ptrtoint ptr %8 to i64
  %23 = ptrtoint ptr %6 to i64
  %24 = sub i64 %22, %23
  %25 = getelementptr inbounds i8, ptr %6, i64 %24
  %.fca.0.insert = insertvalue { ptr, ptr } poison, ptr %6, 0
  %.fca.1.insert = insertvalue { ptr, ptr } %.fca.0.insert, ptr %25, 1
  ret { ptr, ptr } %.fca.1.insert

26:                                               ; preds = %18, %20
  %.pn.pn13 = phi { ptr, i32 } [ %19, %18 ], [ %.pn.pn14, %20 ]
  resume { ptr, i32 } %.pn.pn13

27:                                               ; preds = %15
  unreachable
}